; Function Attrs: nounwind uwtable
define noalias nonnull ptr @l_Lake_Job_nil(ptr noundef %0) local_unnamed_addr #1 {
  %2 = tail call ptr @l_Lake_BuildTrace_nil(ptr noundef %0) #8
  %3 = load ptr, ptr @l_Lake_Job_instPure___rarg___closed__1, align 8, !tbaa !10
  tail call void @lean_inc_heartbeat() #8
  %4 = tail call noalias ptr @mi_malloc_small(i64 noundef 32) #8
  %5 = icmp eq ptr %4, null
  br i1 %5, label %6, label %lean_alloc_ctor.exit

6:                                                ; preds = %1
  tail call void @lean_internal_panic_out_of_memory() #9
  unreachable

lean_alloc_ctor.exit:                             ; preds = %1
  %7 = getelementptr inbounds nuw i8, ptr %4, i64 4
  %8 = getelementptr inbounds nuw i8, ptr %4, i64 24
  store i64 0, ptr %8, align 8, !tbaa !17
  store i32 1, ptr %4, align 4, !tbaa !4
  store i32 131104, ptr %7, align 4
  %9 = getelementptr inbounds nuw i8, ptr %4, i64 8
  store ptr %3, ptr %9, align 8, !tbaa !10
  %10 = getelementptr inbounds nuw i8, ptr %4, i64 16
  store ptr %2, ptr %10, align 8, !tbaa !10
  tail call void @lean_inc_heartbeat() #8
  %11 = tail call noalias ptr @mi_malloc_small(i64 noundef 24) #8
  %12 = icmp eq ptr %11, null
  br i1 %12, label %13, label %lean_alloc_ctor.exit20

13:                                               ; preds = %lean_alloc_ctor.exit
  tail call void @lean_internal_panic_out_of_memory() #9
  unreachable

lean_alloc_ctor.exit20:                           ; preds = %lean_alloc_ctor.exit
  %14 = getelementptr inbounds nuw i8, ptr %11, i64 4
  store i32 1, ptr %11, align 4, !tbaa !4
  store i32 131096, ptr %14, align 4
  %15 = getelementptr inbounds nuw i8, ptr %11, i64 8
  store ptr inttoptr (i64 1 to ptr), ptr %15, align 8, !tbaa !10
  %16 = getelementptr inbounds nuw i8, ptr %11, i64 16
  store ptr %4, ptr %16, align 8, !tbaa !10
  %17 = tail call ptr @lean_task_pure(ptr noundef nonnull %11) #8
  %18 = load ptr, ptr @l_Lake_instInhabitedJob___closed__3, align 8, !tbaa !10
  tail call void @lean_inc_heartbeat() #8
  %19 = tail call noalias ptr @mi_malloc_small(i64 noundef 40) #8
  %20 = icmp eq ptr %19, null
  br i1 %20, label %21, label %lean_alloc_ctor.exit22

21:                                               ; preds = %lean_alloc_ctor.exit20
  tail call void @lean_internal_panic_out_of_memory() #9
  unreachable

lean_alloc_ctor.exit22:                           ; preds = %lean_alloc_ctor.exit20
  %22 = getelementptr inbounds nuw i8, ptr %19, i64 4
  %23 = getelementptr inbounds nuw i8, ptr %19, i64 32
  store i64 0, ptr %23, align 8, !tbaa !17
  store i32 1, ptr %19, align 4, !tbaa !4
  store i32 196648, ptr %22, align 4
  %24 = getelementptr inbounds nuw i8, ptr %19, i64 8
  store ptr %17, ptr %24, align 8, !tbaa !10
  %25 = getelementptr inbounds nuw i8, ptr %19, i64 16
  store ptr inttoptr (i64 1 to ptr), ptr %25, align 8, !tbaa !10
  %26 = getelementptr inbounds nuw i8, ptr %19, i64 24
  store ptr %18, ptr %26, align 8, !tbaa !10
  ret ptr %19
}